; ModuleID = '9/872.c'
source_filename = "9/872.c"
target datalayout = "e-m:e-p270:32:32-p271:32:32-p272:64:64-i64:64-f80:128-n8:16:32:64-S128"
target triple = "x86_64-pc-linux-gnu"

@.str = private unnamed_addr constant [3 x i8] c"%d\00", align 1
@.str.1 = private unnamed_addr constant [3 x i8] c"%s\00", align 1
@.str.2 = private unnamed_addr constant [4 x i8] c"%s\0A\00", align 1

; Function Attrs: noinline nounwind uwtable
define dso_local i32 @main() #0 {
  %1 = alloca i32, align 4
  %2 = alloca i32, align 4
  %3 = alloca i32, align 4
  %4 = alloca [100 x i32], align 16
  %5 = alloca i32, align 4
  %6 = alloca i32, align 4
  %7 = alloca [100 x i32], align 16
  %8 = alloca i32, align 4
  %9 = alloca [100 x [20 x i8]], align 16
  %10 = alloca [20 x i8], align 16
  %11 = alloca [100 x [20 x i8]], align 16
  store i32 0, i32* %1, align 4
  store i32 0, i32* %3, align 4
  %12 = call i32 (i8*, ...) @__isoc99_scanf(i8* getelementptr inbounds ([3 x i8], [3 x i8]* @.str, i64 0, i64 0), i32* %2)
  store i32 0, i32* %5, align 4
  br label %13

13:                                               ; preds = %27, %0
  %14 = load i32, i32* %5, align 4
  %15 = load i32, i32* %2, align 4
  %16 = icmp slt i32 %14, %15
  br i1 %16, label %17, label %30

17:                                               ; preds = %13
  %18 = load i32, i32* %5, align 4
  %19 = sext i32 %18 to i64
  %20 = getelementptr inbounds [100 x [20 x i8]], [100 x [20 x i8]]* %9, i64 0, i64 %19
  %21 = getelementptr inbounds [20 x i8], [20 x i8]* %20, i64 0, i64 0
  %22 = call i32 (i8*, ...) @__isoc99_scanf(i8* getelementptr inbounds ([3 x i8], [3 x i8]* @.str.1, i64 0, i64 0), i8* %21)
  %23 = load i32, i32* %5, align 4
  %24 = sext i32 %23 to i64
  %25 = getelementptr inbounds [100 x i32], [100 x i32]* %4, i64 0, i64 %24
  %26 = call i32 (i8*, ...) @__isoc99_scanf(i8* getelementptr inbounds ([3 x i8], [3 x i8]* @.str, i64 0, i64 0), i32* %25)
  br label %27

27:                                               ; preds = %17
  %28 = load i32, i32* %5, align 4
  %29 = add nsw i32 %28, 1
  store i32 %29, i32* %5, align 4
  br label %13

30:                                               ; preds = %13
  store i32 0, i32* %5, align 4
  br label %31

31:                                               ; preds = %93, %30
  %32 = load i32, i32* %5, align 4
  %33 = load i32, i32* %2, align 4
  %34 = icmp slt i32 %32, %33
  br i1 %34, label %35, label %96

35:                                               ; preds = %31
  %36 = load i32, i32* %5, align 4
  %37 = sext i32 %36 to i64
  %38 = getelementptr inbounds [100 x i32], [100 x i32]* %4, i64 0, i64 %37
  %39 = load i32, i32* %38, align 4
  %40 = icmp sge i32 %39, 60
  br i1 %40, label %41, label %92

41:                                               ; preds = %35
  %42 = load i32, i32* %2, align 4
  %43 = add nsw i32 %42, -1
  store i32 %43, i32* %2, align 4
  %44 = load i32, i32* %3, align 4
  %45 = sext i32 %44 to i64
  %46 = getelementptr inbounds [100 x [20 x i8]], [100 x [20 x i8]]* %11, i64 0, i64 %45
  %47 = getelementptr inbounds [20 x i8], [20 x i8]* %46, i64 0, i64 0
  %48 = load i32, i32* %5, align 4
  %49 = sext i32 %48 to i64
  %50 = getelementptr inbounds [100 x [20 x i8]], [100 x [20 x i8]]* %9, i64 0, i64 %49
  %51 = getelementptr inbounds [20 x i8], [20 x i8]* %50, i64 0, i64 0
  %52 = call i8* @strcpy(i8* %47, i8* %51) #3
  %53 = load i32, i32* %5, align 4
  %54 = sext i32 %53 to i64
  %55 = getelementptr inbounds [100 x i32], [100 x i32]* %4, i64 0, i64 %54
  %56 = load i32, i32* %55, align 4
  %57 = load i32, i32* %3, align 4
  %58 = sext i32 %57 to i64
  %59 = getelementptr inbounds [100 x i32], [100 x i32]* %7, i64 0, i64 %58
  store i32 %56, i32* %59, align 4
  %60 = load i32, i32* %3, align 4
  %61 = add nsw i32 %60, 1
  store i32 %61, i32* %3, align 4
  %62 = load i32, i32* %5, align 4
  store i32 %62, i32* %6, align 4
  br label %63

63:                                               ; preds = %86, %41
  %64 = load i32, i32* %6, align 4
  %65 = load i32, i32* %2, align 4
  %66 = icmp sle i32 %64, %65
  br i1 %66, label %67, label %89

67:                                               ; preds = %63
  %68 = load i32, i32* %6, align 4
  %69 = sext i32 %68 to i64
  %70 = getelementptr inbounds [100 x [20 x i8]], [100 x [20 x i8]]* %9, i64 0, i64 %69
  %71 = getelementptr inbounds [20 x i8], [20 x i8]* %70, i64 0, i64 0
  %72 = load i32, i32* %6, align 4
  %73 = add nsw i32 %72, 1
  %74 = sext i32 %73 to i64
  %75 = getelementptr inbounds [100 x [20 x i8]], [100 x [20 x i8]]* %9, i64 0, i64 %74
  %76 = getelementptr inbounds [20 x i8], [20 x i8]* %75, i64 0, i64 0
  %77 = call i8* @strcpy(i8* %71, i8* %76) #3
  %78 = load i32, i32* %6, align 4
  %79 = add nsw i32 %78, 1
  %80 = sext i32 %79 to i64
  %81 = getelementptr inbounds [100 x i32], [100 x i32]* %4, i64 0, i64 %80
  %82 = load i32, i32* %81, align 4
  %83 = load i32, i32* %6, align 4
  %84 = sext i32 %83 to i64
  %85 = getelementptr inbounds [100 x i32], [100 x i32]* %4, i64 0, i64 %84
  store i32 %82, i32* %85, align 4
  br label %86

86:                                               ; preds = %67
  %87 = load i32, i32* %6, align 4
  %88 = add nsw i32 %87, 1
  store i32 %88, i32* %6, align 4
  br label %63

89:                                               ; preds = %63
  %90 = load i32, i32* %5, align 4
  %91 = add nsw i32 %90, -1
  store i32 %91, i32* %5, align 4
  br label %92

92:                                               ; preds = %89, %35
  br label %93

93:                                               ; preds = %92
  %94 = load i32, i32* %5, align 4
  %95 = add nsw i32 %94, 1
  store i32 %95, i32* %5, align 4
  br label %31

96:                                               ; preds = %31
  store i32 1, i32* %6, align 4
  br label %97

97:                                               ; preds = %165, %96
  %98 = load i32, i32* %6, align 4
  %99 = load i32, i32* %3, align 4
  %100 = icmp sle i32 %98, %99
  br i1 %100, label %101, label %168

101:                                              ; preds = %97
  store i32 0, i32* %5, align 4
  br label %102

102:                                              ; preds = %161, %101
  %103 = load i32, i32* %5, align 4
  %104 = load i32, i32* %3, align 4
  %105 = load i32, i32* %6, align 4
  %106 = sub nsw i32 %104, %105
  %107 = icmp slt i32 %103, %106
  br i1 %107, label %108, label %164

108:                                              ; preds = %102
  %109 = load i32, i32* %5, align 4
  %110 = sext i32 %109 to i64
  %111 = getelementptr inbounds [100 x i32], [100 x i32]* %7, i64 0, i64 %110
  %112 = load i32, i32* %111, align 4
  %113 = load i32, i32* %5, align 4
  %114 = add nsw i32 %113, 1
  %115 = sext i32 %114 to i64
  %116 = getelementptr inbounds [100 x i32], [100 x i32]* %7, i64 0, i64 %115
  %117 = load i32, i32* %116, align 4
  %118 = icmp slt i32 %112, %117
  br i1 %118, label %119, label %160

119:                                              ; preds = %108
  %120 = load i32, i32* %5, align 4
  %121 = sext i32 %120 to i64
  %122 = getelementptr inbounds [100 x i32], [100 x i32]* %7, i64 0, i64 %121
  %123 = load i32, i32* %122, align 4
  store i32 %123, i32* %8, align 4
  %124 = load i32, i32* %5, align 4
  %125 = add nsw i32 %124, 1
  %126 = sext i32 %125 to i64
  %127 = getelementptr inbounds [100 x i32], [100 x i32]* %7, i64 0, i64 %126
  %128 = load i32, i32* %127, align 4
  %129 = load i32, i32* %5, align 4
  %130 = sext i32 %129 to i64
  %131 = getelementptr inbounds [100 x i32], [100 x i32]* %7, i64 0, i64 %130
  store i32 %128, i32* %131, align 4
  %132 = load i32, i32* %8, align 4
  %133 = load i32, i32* %5, align 4
  %134 = add nsw i32 %133, 1
  %135 = sext i32 %134 to i64
  %136 = getelementptr inbounds [100 x i32], [100 x i32]* %7, i64 0, i64 %135
  store i32 %132, i32* %136, align 4
  %137 = getelementptr inbounds [20 x i8], [20 x i8]* %10, i64 0, i64 0
  %138 = load i32, i32* %5, align 4
  %139 = sext i32 %138 to i64
  %140 = getelementptr inbounds [100 x [20 x i8]], [100 x [20 x i8]]* %11, i64 0, i64 %139
  %141 = getelementptr inbounds [20 x i8], [20 x i8]* %140, i64 0, i64 0
  %142 = call i8* @strcpy(i8* %137, i8* %141) #3
  %143 = load i32, i32* %5, align 4
  %144 = sext i32 %143 to i64
  %145 = getelementptr inbounds [100 x [20 x i8]], [100 x [20 x i8]]* %11, i64 0, i64 %144
  %146 = getelementptr inbounds [20 x i8], [20 x i8]* %145, i64 0, i64 0
  %147 = load i32, i32* %5, align 4
  %148 = add nsw i32 %147, 1
  %149 = sext i32 %148 to i64
  %150 = getelementptr inbounds [100 x [20 x i8]], [100 x [20 x i8]]* %11, i64 0, i64 %149
  %151 = getelementptr inbounds [20 x i8], [20 x i8]* %150, i64 0, i64 0
  %152 = call i8* @strcpy(i8* %146, i8* %151) #3
  %153 = load i32, i32* %5, align 4
  %154 = add nsw i32 %153, 1
  %155 = sext i32 %154 to i64
  %156 = getelementptr inbounds [100 x [20 x i8]], [100 x [20 x i8]]* %11, i64 0, i64 %155
  %157 = getelementptr inbounds [20 x i8], [20 x i8]* %156, i64 0, i64 0
  %158 = getelementptr inbounds [20 x i8], [20 x i8]* %10, i64 0, i64 0
  %159 = call i8* @strcpy(i8* %157, i8* %158) #3
  br label %160

160:                                              ; preds = %119, %108
  br label %161

161:                                              ; preds = %160
  %162 = load i32, i32* %5, align 4
  %163 = add nsw i32 %162, 1
  store i32 %163, i32* %5, align 4
  br label %102

164:                                              ; preds = %102
  br label %165

165:                                              ; preds = %164
  %166 = load i32, i32* %6, align 4
  %167 = add nsw i32 %166, 1
  store i32 %167, i32* %6, align 4
  br label %97

168:                                              ; preds = %97
  store i32 0, i32* %5, align 4
  br label %169

169:                                              ; preds = %179, %168
  %170 = load i32, i32* %5, align 4
  %171 = load i32, i32* %3, align 4
  %172 = icmp slt i32 %170, %171
  br i1 %172, label %173, label %182

173:                                              ; preds = %169
  %174 = load i32, i32* %5, align 4
  %175 = sext i32 %174 to i64
  %176 = getelementptr inbounds [100 x [20 x i8]], [100 x [20 x i8]]* %11, i64 0, i64 %175
  %177 = getelementptr inbounds [20 x i8], [20 x i8]* %176, i64 0, i64 0
  %178 = call i32 (i8*, ...) @printf(i8* getelementptr inbounds ([4 x i8], [4 x i8]* @.str.2, i64 0, i64 0), i8* %177)
  br label %179

179:                                              ; preds = %173
  %180 = load i32, i32* %5, align 4
  %181 = add nsw i32 %180, 1
  store i32 %181, i32* %5, align 4
  br label %169

182:                                              ; preds = %169
  store i32 0, i32* %5, align 4
  br label %183

183:                                              ; preds = %193, %182
  %184 = load i32, i32* %5, align 4
  %185 = load i32, i32* %2, align 4
  %186 = icmp slt i32 %184, %185
  br i1 %186, label %187, label %196

187:                                              ; preds = %183
  %188 = load i32, i32* %5, align 4
  %189 = sext i32 %188 to i64
  %190 = getelementptr inbounds [100 x [20 x i8]], [100 x [20 x i8]]* %9, i64 0, i64 %189
  %191 = getelementptr inbounds [20 x i8], [20 x i8]* %190, i64 0, i64 0
  %192 = call i32 (i8*, ...) @printf(i8* getelementptr inbounds ([4 x i8], [4 x i8]* @.str.2, i64 0, i64 0), i8* %191)
  br label %193

193:                                              ; preds = %187
  %194 = load i32, i32* %5, align 4
  %195 = add nsw i32 %194, 1
  store i32 %195, i32* %5, align 4
  br label %183

196:                                              ; preds = %183
  ret i32 0
}

declare dso_local i32 @__isoc99_scanf(i8*, ...) #1

; Function Attrs: nounwind
declare dso_local i8* @strcpy(i8*, i8*) #2

declare dso_local i32 @printf(i8*, ...) #1


!llvm.module.flags = !{!0}
!llvm.ident = !{!1}

!0 = !{i32 1, !"wchar_size", i32 4}
!1 = !{!"clang version 10.0.0-4ubuntu1 "}
